; Function Attrs: nofree norecurse nosync nounwind memory(read, inaccessiblemem: none) uwtable
define ptr @zend_get_executed_scope() local_unnamed_addr #8 {
  %.012 = load ptr, ptr getelementptr inbounds (%struct._zend_executor_globals, ptr @executor_globals, i64 0, i32 17), align 8
  %.not13 = icmp eq ptr %.012, null
  br i1 %.not13, label %.loopexit, label %.lr.ph

.lr.ph:                                           ; preds = %0, %7
  %.014 = phi ptr [ %.0, %7 ], [ %.012, %0 ]
  %1 = getelementptr inbounds i8, ptr %.014, i64 24
  %2 = load ptr, ptr %1, align 8
  %.not9 = icmp eq ptr %2, null
  br i1 %.not9, label %7, label %3

3:                                                ; preds = %.lr.ph
  %4 = load i8, ptr %2, align 8
  %.not10 = icmp eq i8 %4, 1
  %5 = getelementptr inbounds i8, ptr %2, i64 16
  %6 = load ptr, ptr %5, align 8
  %.not11 = icmp eq ptr %6, null
  %or.cond = select i1 %.not10, i1 %.not11, i1 false
  br i1 %or.cond, label %7, label %.loopexit

7:                                                ; preds = %3, %.lr.ph
  %8 = getelementptr inbounds i8, ptr %.014, i64 48
  %.0 = load ptr, ptr %8, align 8
  %.not = icmp eq ptr %.0, null
  br i1 %.not, label %.loopexit, label %.lr.ph

.loopexit:                                        ; preds = %7, %3, %0
  %.07 = phi ptr [ null, %0 ], [ null, %7 ], [ %6, %3 ]
  ret ptr %.07
}